; Function Attrs: mustprogress nofree norecurse nounwind willreturn memory(argmem: readwrite) uwtable
define dso_local void @__cxa_increment_exception_refcount(ptr noundef captures(address_is_null) %0) local_unnamed_addr #14 personality ptr @__gxx_personality_v0 {
  %.not = icmp eq ptr %0, null
  br i1 %.not, label %5, label %2

2:                                                ; preds = %1
  %3 = getelementptr inbounds i8, ptr %0, i64 -120
  %4 = atomicrmw add ptr %3, i64 1 seq_cst, align 8
  br label %5

5:                                                ; preds = %2, %1
  ret void
}